; Function Attrs: mustprogress uwtable
define hidden noundef zeroext i1 @_ZN8facebook6hermes17HermesRuntimeImpl14bigintIsUint64ERKNS_3jsi6BigIntE(ptr nocapture nonnull readnone align 8 %this, ptr nocapture noundef nonnull readonly align 8 dereferenceable(8) %bigint) unnamed_addr #0 align 2 {
entry:
  %0 = load ptr, ptr %bigint, align 8
  %1 = getelementptr inbounds i8, ptr %0, i64 16
  %2 = load i64, ptr %1, align 8
  %and.i.i = and i64 %2, 281474976710655
  %3 = inttoptr i64 %and.i.i to ptr
  %add.ptr.i.i.i.i = getelementptr inbounds i8, ptr %3, i64 8
  %numDigits2.i.i = getelementptr inbounds i8, ptr %3, i64 4
  %4 = load i32, ptr %numDigits2.i.i, align 4
  %call2.i = tail call noundef zeroext i1 @_ZN6hermes6bigint31isSingleDigitTruncationLosslessENS0_18ImmutableBigIntRefEb(ptr nonnull %add.ptr.i.i.i.i, i32 %4, i1 noundef zeroext false)
  ret i1 %call2.i
}